; ModuleID = '22/1036.c'
source_filename = "22/1036.c"
target datalayout = "e-m:e-p270:32:32-p271:32:32-p272:64:64-i64:64-f80:128-n8:16:32:64-S128"
target triple = "x86_64-pc-linux-gnu"

@.str = private unnamed_addr constant [5 x i8] c"%d%c\00", align 1
@.str.1 = private unnamed_addr constant [3 x i8] c"%d\00", align 1
@.str.2 = private unnamed_addr constant [3 x i8] c"No\00", align 1

; Function Attrs: noinline nounwind uwtable
define dso_local i32 @main() #0 {
  %1 = alloca i32, align 4
  %2 = alloca [300 x i32], align 16
  %3 = alloca i32, align 4
  %4 = alloca i32, align 4
  %5 = alloca i32, align 4
  %6 = alloca i32, align 4
  %7 = alloca i32, align 4
  %8 = alloca i8, align 1
  store i32 0, i32* %1, align 4
  store i32 0, i32* %4, align 4
  br label %9

9:                                                ; preds = %16, %0
  %10 = load i32, i32* %4, align 4
  %11 = sext i32 %10 to i64
  %12 = getelementptr inbounds [300 x i32], [300 x i32]* %2, i64 0, i64 %11
  %13 = call i32 (i8*, ...) @__isoc99_scanf(i8* getelementptr inbounds ([5 x i8], [5 x i8]* @.str, i64 0, i64 0), i32* %12, i8* %8)
  %14 = load i32, i32* %4, align 4
  %15 = add nsw i32 %14, 1
  store i32 %15, i32* %4, align 4
  br label %16

16:                                               ; preds = %9
  %17 = load i8, i8* %8, align 1
  %18 = sext i8 %17 to i32
  %19 = icmp ne i32 %18, 10
  br i1 %19, label %9, label %20

20:                                               ; preds = %16
  %21 = load i32, i32* %4, align 4
  store i32 %21, i32* %3, align 4
  %22 = getelementptr inbounds [300 x i32], [300 x i32]* %2, i64 0, i64 0
  %23 = load i32, i32* %22, align 16
  store i32 %23, i32* %6, align 4
  store i32 -1, i32* %7, align 4
  store i32 1, i32* %4, align 4
  br label %24

24:                                               ; preds = %63, %20
  %25 = load i32, i32* %4, align 4
  %26 = load i32, i32* %3, align 4
  %27 = icmp slt i32 %25, %26
  br i1 %27, label %28, label %66

28:                                               ; preds = %24
  %29 = load i32, i32* %4, align 4
  %30 = sext i32 %29 to i64
  %31 = getelementptr inbounds [300 x i32], [300 x i32]* %2, i64 0, i64 %30
  %32 = load i32, i32* %31, align 4
  %33 = load i32, i32* %6, align 4
  %34 = icmp sgt i32 %32, %33
  br i1 %34, label %35, label %41

35:                                               ; preds = %28
  %36 = load i32, i32* %6, align 4
  store i32 %36, i32* %7, align 4
  %37 = load i32, i32* %4, align 4
  %38 = sext i32 %37 to i64
  %39 = getelementptr inbounds [300 x i32], [300 x i32]* %2, i64 0, i64 %38
  %40 = load i32, i32* %39, align 4
  store i32 %40, i32* %6, align 4
  br label %62

41:                                               ; preds = %28
  %42 = load i32, i32* %4, align 4
  %43 = sext i32 %42 to i64
  %44 = getelementptr inbounds [300 x i32], [300 x i32]* %2, i64 0, i64 %43
  %45 = load i32, i32* %44, align 4
  %46 = load i32, i32* %6, align 4
  %47 = icmp slt i32 %45, %46
  br i1 %47, label %48, label %60

48:                                               ; preds = %41
  %49 = load i32, i32* %4, align 4
  %50 = sext i32 %49 to i64
  %51 = getelementptr inbounds [300 x i32], [300 x i32]* %2, i64 0, i64 %50
  %52 = load i32, i32* %51, align 4
  %53 = load i32, i32* %7, align 4
  %54 = icmp sgt i32 %52, %53
  br i1 %54, label %55, label %60

55:                                               ; preds = %48
  %56 = load i32, i32* %4, align 4
  %57 = sext i32 %56 to i64
  %58 = getelementptr inbounds [300 x i32], [300 x i32]* %2, i64 0, i64 %57
  %59 = load i32, i32* %58, align 4
  store i32 %59, i32* %7, align 4
  br label %61

60:                                               ; preds = %48, %41
  br label %61

61:                                               ; preds = %60, %55
  br label %62

62:                                               ; preds = %61, %35
  br label %63

63:                                               ; preds = %62
  %64 = load i32, i32* %4, align 4
  %65 = add nsw i32 %64, 1
  store i32 %65, i32* %4, align 4
  br label %24

66:                                               ; preds = %24
  %67 = load i32, i32* %7, align 4
  %68 = icmp ne i32 %67, -1
  br i1 %68, label %69, label %72

69:                                               ; preds = %66
  %70 = load i32, i32* %7, align 4
  %71 = call i32 (i8*, ...) @printf(i8* getelementptr inbounds ([3 x i8], [3 x i8]* @.str.1, i64 0, i64 0), i32 %70)
  br label %74

72:                                               ; preds = %66
  %73 = call i32 (i8*, ...) @printf(i8* getelementptr inbounds ([3 x i8], [3 x i8]* @.str.2, i64 0, i64 0))
  br label %74

74:                                               ; preds = %72, %69
  ret i32 0
}

declare dso_local i32 @__isoc99_scanf(i8*, ...) #1

declare dso_local i32 @printf(i8*, ...) #1


!llvm.module.flags = !{!0}
!llvm.ident = !{!1}

!0 = !{i32 1, !"wchar_size", i32 4}
!1 = !{!"clang version 10.0.0-4ubuntu1 "}
